target datalayout = "e-m:e-p270:32:32-p271:32:32-p272:64:64-i64:64-i128:128-f80:128-n8:16:32:64-S128"
target triple = "x86_64-pc-linux-gnu"

%struct.CK_FUNCTION_LIST = type { %struct.CK_VERSION, ptr, ptr, ptr, ptr, ptr, ptr, ptr, ptr, ptr, ptr, ptr, ptr, ptr, ptr, ptr, ptr, ptr, ptr, ptr, ptr, ptr, ptr, ptr, ptr, ptr, ptr, ptr, ptr, ptr, ptr, ptr, ptr, ptr, ptr, ptr, ptr, ptr, ptr, ptr, ptr, ptr, ptr, ptr, ptr, ptr, ptr, ptr, ptr, ptr, ptr, ptr, ptr, ptr, ptr, ptr, ptr, ptr, ptr, ptr, ptr, ptr, ptr, ptr, ptr, ptr, ptr, ptr, ptr }
%struct.CK_VERSION = type { i8, i8 }

; Function Attrs: nounwind uwtable
define void @Java_sun_security_pkcs11_wrapper_PKCS11_C_1Initialize(ptr noundef %0, ptr noundef %1, ptr noundef %2) #0 {
  %4 = alloca ptr, align 8
  %5 = alloca ptr, align 8
  %6 = alloca ptr, align 8
  %7 = alloca ptr, align 8
  %8 = alloca i64, align 8
  %9 = alloca ptr, align 8
  store ptr %0, ptr %4, align 8
  store ptr %1, ptr %5, align 8
  store ptr %2, ptr %6, align 8
  %10 = load ptr, ptr %4, align 8
  %11 = load ptr, ptr %5, align 8
  %12 = call ptr @getFunctionList(ptr noundef %10, ptr noundef %11)
  store ptr %12, ptr %9, align 8
  %13 = load ptr, ptr %9, align 8
  %14 = icmp eq ptr %13, null
  br i1 %14, label %15, label %16

15:                                               ; preds = %3
  br label %37

16:                                               ; preds = %3
  %17 = load ptr, ptr %6, align 8
  %18 = icmp ne ptr %17, null
  br i1 %18, label %19, label %23

19:                                               ; preds = %16
  %20 = load ptr, ptr %4, align 8
  %21 = load ptr, ptr %6, align 8
  %22 = call ptr @makeCKInitArgsAdapter(ptr noundef %20, ptr noundef %21)
  br label %24

23:                                               ; preds = %16
  br label %24

24:                                               ; preds = %23, %19
  %25 = phi ptr [ %22, %19 ], [ null, %23 ]
  store ptr %25, ptr %7, align 8
  %26 = load ptr, ptr %9, align 8
  %27 = getelementptr inbounds %struct.CK_FUNCTION_LIST, ptr %26, i32 0, i32 1
  %28 = load ptr, ptr %27, align 8
  %29 = load ptr, ptr %7, align 8
  %30 = call i64 %28(ptr noundef %29)
  store i64 %30, ptr %8, align 8
  %31 = load ptr, ptr %7, align 8
  call void @free(ptr noundef %31) #5
  %32 = load ptr, ptr %4, align 8
  %33 = load i64, ptr %8, align 8
  %34 = call i64 @ckAssertReturnValueOK(ptr noundef %32, i64 noundef %33)
  %35 = icmp ne i64 %34, 0
  br i1 %35, label %36, label %37

36:                                               ; preds = %24
  br label %37

37:                                               ; preds = %36, %24, %15
  ret void
}