; Function Attrs: nounwind uwtable
define void @Java_sun_security_pkcs11_wrapper_PKCS11_C_1Initialize(ptr noundef %0, ptr noundef %1, ptr noundef %2) local_unnamed_addr #1 {
  %4 = tail call ptr @getFunctionList(ptr noundef %0, ptr noundef %1) #7
  %5 = icmp eq ptr %4, null
  br i1 %5, label %15, label %6

6:                                                ; preds = %3
  %.not = icmp eq ptr %2, null
  br i1 %.not, label %9, label %7

7:                                                ; preds = %6
  %8 = tail call ptr @makeCKInitArgsAdapter(ptr noundef %0, ptr noundef nonnull %2) #7
  br label %9

9:                                                ; preds = %6, %7
  %10 = phi ptr [ %8, %7 ], [ null, %6 ]
  %11 = getelementptr inbounds i8, ptr %4, i64 8
  %12 = load ptr, ptr %11, align 8
  %13 = tail call i64 %12(ptr noundef %10) #7
  tail call void @free(ptr noundef %10) #7
  %14 = tail call i64 @ckAssertReturnValueOK(ptr noundef %0, i64 noundef %13) #7
  br label %15

15:                                               ; preds = %9, %3
  ret void
}